; Function Attrs: mustprogress uwtable
define dso_local void @_ZN3net18SourceAddressToken8CopyFromERKS0_(ptr noundef nonnull align 8 dereferenceable(56) %this, ptr noundef nonnull align 8 dereferenceable(56) %from) local_unnamed_addr #1 align 2 {
entry:
  %cmp = icmp eq ptr %from, %this
  br i1 %cmp, label %return, label %if.end

if.end:                                           ; preds = %entry
  %vtable = load ptr, ptr %this, align 8
  %vfn = getelementptr inbounds i8, ptr %vtable, i64 56
  %0 = load ptr, ptr %vfn, align 8
  tail call void %0(ptr noundef nonnull align 8 dereferenceable(56) %this)
  tail call void @_ZN3net18SourceAddressToken9MergeFromERKS0_(ptr noundef nonnull align 8 dereferenceable(56) %this, ptr noundef nonnull align 8 dereferenceable(56) %from)
  br label %return

return:                                           ; preds = %entry, %if.end
  ret void
}